; ModuleID = '34/861.c'
source_filename = "34/861.c"
target datalayout = "e-m:e-p270:32:32-p271:32:32-p272:64:64-i64:64-f80:128-n8:16:32:64-S128"
target triple = "x86_64-pc-linux-gnu"

@.str = private unnamed_addr constant [3 x i8] c"%d\00", align 1
@.str.1 = private unnamed_addr constant [4 x i8] c"End\00", align 1
@.str.2 = private unnamed_addr constant [11 x i8] c"%d*3+1=%d\0A\00", align 1
@.str.3 = private unnamed_addr constant [9 x i8] c"%d/2=%d\0A\00", align 1

; Function Attrs: noinline nounwind uwtable
define dso_local i32 @main() #0 {
  %1 = alloca i32, align 4
  %2 = alloca i32, align 4
  store i32 0, i32* %1, align 4
  %3 = call i32 (i8*, ...) @__isoc99_scanf(i8* getelementptr inbounds ([3 x i8], [3 x i8]* @.str, i64 0, i64 0), i32* %2)
  br label %4

4:                                                ; preds = %18, %0
  %5 = load i32, i32* %2, align 4
  %6 = icmp eq i32 %5, 1
  br i1 %6, label %7, label %8

7:                                                ; preds = %4
  br label %19

8:                                                ; preds = %4
  %9 = load i32, i32* %2, align 4
  %10 = srem i32 %9, 2
  %11 = icmp eq i32 %10, 0
  br i1 %11, label %12, label %15

12:                                               ; preds = %8
  %13 = load i32, i32* %2, align 4
  %14 = call i32 @isoushu(i32 %13)
  store i32 %14, i32* %2, align 4
  br label %18

15:                                               ; preds = %8
  %16 = load i32, i32* %2, align 4
  %17 = call i32 @isjishu(i32 %16)
  store i32 %17, i32* %2, align 4
  br label %18

18:                                               ; preds = %15, %12
  br label %4

19:                                               ; preds = %7
  %20 = call i32 (i8*, ...) @printf(i8* getelementptr inbounds ([4 x i8], [4 x i8]* @.str.1, i64 0, i64 0))
  ret i32 0
}

declare dso_local i32 @__isoc99_scanf(i8*, ...) #1

; Function Attrs: noinline nounwind uwtable
define dso_local i32 @isoushu(i32 %0) #0 {
  %2 = alloca i32, align 4
  %3 = alloca i32, align 4
  store i32 %0, i32* %2, align 4
  %4 = load i32, i32* %2, align 4
  store i32 %4, i32* %3, align 4
  %5 = load i32, i32* %2, align 4
  %6 = sdiv i32 %5, 2
  store i32 %6, i32* %2, align 4
  %7 = load i32, i32* %3, align 4
  %8 = load i32, i32* %2, align 4
  %9 = call i32 (i8*, ...) @printf(i8* getelementptr inbounds ([9 x i8], [9 x i8]* @.str.3, i64 0, i64 0), i32 %7, i32 %8)
  %10 = load i32, i32* %2, align 4
  ret i32 %10
}

; Function Attrs: noinline nounwind uwtable
define dso_local i32 @isjishu(i32 %0) #0 {
  %2 = alloca i32, align 4
  %3 = alloca i32, align 4
  store i32 %0, i32* %2, align 4
  %4 = load i32, i32* %2, align 4
  store i32 %4, i32* %3, align 4
  %5 = load i32, i32* %2, align 4
  %6 = mul nsw i32 %5, 3
  %7 = add nsw i32 %6, 1
  store i32 %7, i32* %2, align 4
  %8 = load i32, i32* %3, align 4
  %9 = load i32, i32* %2, align 4
  %10 = call i32 (i8*, ...) @printf(i8* getelementptr inbounds ([11 x i8], [11 x i8]* @.str.2, i64 0, i64 0), i32 %8, i32 %9)
  %11 = load i32, i32* %2, align 4
  ret i32 %11
}

declare dso_local i32 @printf(i8*, ...) #1


!llvm.module.flags = !{!0}
!llvm.ident = !{!1}

!0 = !{i32 1, !"wchar_size", i32 4}
!1 = !{!"clang version 10.0.0-4ubuntu1 "}
